; Function Attrs: mustprogress null_pointer_is_valid sspstrong uwtable
define void @_ZN10LabelStack15mousePressEventEP11QMouseEvent(ptr noundef align 8 dereferenceable_or_null(112) %0, ptr noundef readonly captures(none) %1) unnamed_addr #0 align 2 personality ptr @__gxx_personality_v0 {
  %3 = alloca %class.QPoint, align 8
  %4 = getelementptr inbounds nuw i8, ptr %1, i64 64
  %5 = load i32, ptr %4, align 8
  %6 = icmp eq i32 %5, 1
  br i1 %6, label %7, label %19

7:                                                ; preds = %2
  call void @llvm.lifetime.start.p0(i64 8, ptr nonnull %3) #17
  %8 = getelementptr inbounds nuw i8, ptr %1, i64 48
  %9 = load ptr, ptr %8, align 8
  %10 = tail call { double, double } @_ZNK11QEventPoint14globalPositionEv(ptr noundef align 8 dereferenceable_or_null(8) %9)
  %11 = extractvalue { double, double } %10, 0
  %12 = extractvalue { double, double } %10, 1
  %13 = tail call double @llvm.copysign.f64(double 5.000000e-01, double %11)
  %14 = fadd double %11, %13
  %15 = fptosi double %14 to i32
  %16 = tail call double @llvm.copysign.f64(double 5.000000e-01, double %12)
  %17 = fadd double %12, %16
  %18 = fptosi double %17 to i32
  %.sroa.2.0.insert.ext.i = zext i32 %18 to i64
  %.sroa.2.0.insert.shift.i = shl nuw i64 %.sroa.2.0.insert.ext.i, 32
  %.sroa.0.0.insert.ext.i = zext i32 %15 to i64
  %.sroa.0.0.insert.insert.i = or disjoint i64 %.sroa.2.0.insert.shift.i, %.sroa.0.0.insert.ext.i
  store i64 %.sroa.0.0.insert.insert.i, ptr %3, align 8
  call void @_ZN10LabelStack14mousePressedAtERK6QPointN2Qt11MouseButtonE(ptr noundef align 8 dereferenceable_or_null(112) %0, ptr noundef nonnull align 4 dereferenceable(8) %3, i32 noundef 1)
  call void @llvm.lifetime.end.p0(i64 8, ptr nonnull %3) #17
  br label %19

19:                                               ; preds = %7, %2
  ret void
}